	.file	"helloworld.9f4e2c8587acf621-cgu.0"
	.section	.text._RINvNtCs85GBm0N6DSS_3std2rt10lang_startuECsdFYGeFGU6w7_10helloworld,"ax",@progbits
	.hidden	_RINvNtCs85GBm0N6DSS_3std2rt10lang_startuECsdFYGeFGU6w7_10helloworld
	.globl	_RINvNtCs85GBm0N6DSS_3std2rt10lang_startuECsdFYGeFGU6w7_10helloworld
	.p2align	4
	.type	_RINvNtCs85GBm0N6DSS_3std2rt10lang_startuECsdFYGeFGU6w7_10helloworld,@function
_RINvNtCs85GBm0N6DSS_3std2rt10lang_startuECsdFYGeFGU6w7_10helloworld:
	.cfi_startproc
	pushq	%rax
	.cfi_def_cfa_offset 16
	movl	%ecx, %eax
	movq	%rdx, %rcx
	movq	%rsi, %rdx
	movq	%rdi, (%rsp)
	movq	%rsp, %rdi
	leaq	.Lanon.35a3014d312fa67fbe735fb7e873c570.0(%rip), %rsi
	movzbl	%al, %r8d
	callq	*_RNvNtCs85GBm0N6DSS_3std2rt19lang_start_internal@GOTPCREL(%rip)
	popq	%rcx
	.cfi_def_cfa_offset 8
	retq
.Lfunc_end0:
	.size	_RINvNtCs85GBm0N6DSS_3std2rt10lang_startuECsdFYGeFGU6w7_10helloworld, .Lfunc_end0-_RINvNtCs85GBm0N6DSS_3std2rt10lang_startuECsdFYGeFGU6w7_10helloworld
	.cfi_endproc

	.section	.text._RINvNtNtCs85GBm0N6DSS_3std3sys9backtrace28___rust_begin_short_backtraceFEuuECsdFYGeFGU6w7_10helloworld,"ax",@progbits
	.p2align	4
	.type	_RINvNtNtCs85GBm0N6DSS_3std3sys9backtrace28___rust_begin_short_backtraceFEuuECsdFYGeFGU6w7_10helloworld,@function
_RINvNtNtCs85GBm0N6DSS_3std3sys9backtrace28___rust_begin_short_backtraceFEuuECsdFYGeFGU6w7_10helloworld:
	.cfi_startproc
	pushq	%rax
	.cfi_def_cfa_offset 16
	callq	_RNvYFEuINtNtNtCs8vqiuRab9r0_4core3ops8function6FnOnceuE9call_onceCsdFYGeFGU6w7_10helloworld
	#APP
	#NO_APP
	popq	%rax
	.cfi_def_cfa_offset 8
	retq
.Lfunc_end1:
	.size	_RINvNtNtCs85GBm0N6DSS_3std3sys9backtrace28___rust_begin_short_backtraceFEuuECsdFYGeFGU6w7_10helloworld, .Lfunc_end1-_RINvNtNtCs85GBm0N6DSS_3std3sys9backtrace28___rust_begin_short_backtraceFEuuECsdFYGeFGU6w7_10helloworld
	.cfi_endproc

	.section	.text._RNCINvNtCs85GBm0N6DSS_3std2rt10lang_startuE0CsdFYGeFGU6w7_10helloworld,"ax",@progbits
	.p2align	4
	.type	_RNCINvNtCs85GBm0N6DSS_3std2rt10lang_startuE0CsdFYGeFGU6w7_10helloworld,@function
_RNCINvNtCs85GBm0N6DSS_3std2rt10lang_startuE0CsdFYGeFGU6w7_10helloworld:
	.cfi_startproc
	pushq	%rax
	.cfi_def_cfa_offset 16
	movq	(%rdi), %rdi
	callq	_RINvNtNtCs85GBm0N6DSS_3std3sys9backtrace28___rust_begin_short_backtraceFEuuECsdFYGeFGU6w7_10helloworld
	callq	_RNvXsZ_NtCs85GBm0N6DSS_3std7processuNtB5_11Termination6reportCsdFYGeFGU6w7_10helloworld
	movzbl	%al, %eax
	popq	%rcx
	.cfi_def_cfa_offset 8
	retq
.Lfunc_end2:
	.size	_RNCINvNtCs85GBm0N6DSS_3std2rt10lang_startuE0CsdFYGeFGU6w7_10helloworld, .Lfunc_end2-_RNCINvNtCs85GBm0N6DSS_3std2rt10lang_startuE0CsdFYGeFGU6w7_10helloworld
	.cfi_endproc

	.section	.text._RNSNvYNCINvNtCs85GBm0N6DSS_3std2rt10lang_startuE0INtNtNtCs8vqiuRab9r0_4core3ops8function6FnOnceuE9call_once6vtableCsdFYGeFGU6w7_10helloworld,"ax",@progbits
	.p2align	4
	.type	_RNSNvYNCINvNtCs85GBm0N6DSS_3std2rt10lang_startuE0INtNtNtCs8vqiuRab9r0_4core3ops8function6FnOnceuE9call_once6vtableCsdFYGeFGU6w7_10helloworld,@function
_RNSNvYNCINvNtCs85GBm0N6DSS_3std2rt10lang_startuE0INtNtNtCs8vqiuRab9r0_4core3ops8function6FnOnceuE9call_once6vtableCsdFYGeFGU6w7_10helloworld:
	.cfi_startproc
	pushq	%rax
	.cfi_def_cfa_offset 16
	movq	(%rdi), %rdi
	callq	_RNvYNCINvNtCs85GBm0N6DSS_3std2rt10lang_startuE0INtNtNtCs8vqiuRab9r0_4core3ops8function6FnOnceuE9call_onceCsdFYGeFGU6w7_10helloworld
	popq	%rcx
	.cfi_def_cfa_offset 8
	retq
.Lfunc_end3:
	.size	_RNSNvYNCINvNtCs85GBm0N6DSS_3std2rt10lang_startuE0INtNtNtCs8vqiuRab9r0_4core3ops8function6FnOnceuE9call_once6vtableCsdFYGeFGU6w7_10helloworld, .Lfunc_end3-_RNSNvYNCINvNtCs85GBm0N6DSS_3std2rt10lang_startuE0INtNtNtCs8vqiuRab9r0_4core3ops8function6FnOnceuE9call_once6vtableCsdFYGeFGU6w7_10helloworld
	.cfi_endproc

	.section	.text._RNvCsdFYGeFGU6w7_10helloworld4main,"ax",@progbits
	.hidden	_RNvCsdFYGeFGU6w7_10helloworld4main
	.globl	_RNvCsdFYGeFGU6w7_10helloworld4main
	.p2align	4
	.type	_RNvCsdFYGeFGU6w7_10helloworld4main,@function
_RNvCsdFYGeFGU6w7_10helloworld4main:
	.cfi_startproc
	pushq	%rax
	.cfi_def_cfa_offset 16
	leaq	.Lanon.35a3014d312fa67fbe735fb7e873c570.1(%rip), %rdi
	movl	$14, %esi
	callq	_RNvMs4_NtCs8vqiuRab9r0_4core3fmtNtB5_9Arguments8from_strCsdFYGeFGU6w7_10helloworld
	movq	%rax, %rdi
	movq	%rdx, %rsi
	callq	*_RNvNtNtCs85GBm0N6DSS_3std2io5stdio6__print@GOTPCREL(%rip)
	popq	%rax
	.cfi_def_cfa_offset 8
	retq
.Lfunc_end4:
	.size	_RNvCsdFYGeFGU6w7_10helloworld4main, .Lfunc_end4-_RNvCsdFYGeFGU6w7_10helloworld4main
	.cfi_endproc

	.section	.text._RNvMs4_NtCs8vqiuRab9r0_4core3fmtNtB5_9Arguments8from_strCsdFYGeFGU6w7_10helloworld,"ax",@progbits
	.p2align	4
	.type	_RNvMs4_NtCs8vqiuRab9r0_4core3fmtNtB5_9Arguments8from_strCsdFYGeFGU6w7_10helloworld,@function
_RNvMs4_NtCs8vqiuRab9r0_4core3fmtNtB5_9Arguments8from_strCsdFYGeFGU6w7_10helloworld:
	.cfi_startproc
	movq	%rdi, %rax
	leaq	1(%rsi,%rsi), %rdx
	retq
.Lfunc_end5:
	.size	_RNvMs4_NtCs8vqiuRab9r0_4core3fmtNtB5_9Arguments8from_strCsdFYGeFGU6w7_10helloworld, .Lfunc_end5-_RNvMs4_NtCs8vqiuRab9r0_4core3fmtNtB5_9Arguments8from_strCsdFYGeFGU6w7_10helloworld
	.cfi_endproc

	.section	.text._RNvXsZ_NtCs85GBm0N6DSS_3std7processuNtB5_11Termination6reportCsdFYGeFGU6w7_10helloworld,"ax",@progbits
	.p2align	4
	.type	_RNvXsZ_NtCs85GBm0N6DSS_3std7processuNtB5_11Termination6reportCsdFYGeFGU6w7_10helloworld,@function
_RNvXsZ_NtCs85GBm0N6DSS_3std7processuNtB5_11Termination6reportCsdFYGeFGU6w7_10helloworld:
	.cfi_startproc
	xorl	%eax, %eax
	retq
.Lfunc_end6:
	.size	_RNvXsZ_NtCs85GBm0N6DSS_3std7processuNtB5_11Termination6reportCsdFYGeFGU6w7_10helloworld, .Lfunc_end6-_RNvXsZ_NtCs85GBm0N6DSS_3std7processuNtB5_11Termination6reportCsdFYGeFGU6w7_10helloworld
	.cfi_endproc

	.section	.text._RNvYFEuINtNtNtCs8vqiuRab9r0_4core3ops8function6FnOnceuE9call_onceCsdFYGeFGU6w7_10helloworld,"ax",@progbits
	.p2align	4
	.type	_RNvYFEuINtNtNtCs8vqiuRab9r0_4core3ops8function6FnOnceuE9call_onceCsdFYGeFGU6w7_10helloworld,@function
_RNvYFEuINtNtNtCs8vqiuRab9r0_4core3ops8function6FnOnceuE9call_onceCsdFYGeFGU6w7_10helloworld:
	.cfi_startproc
	pushq	%rax
	.cfi_def_cfa_offset 16
	callq	*%rdi
	popq	%rax
	.cfi_def_cfa_offset 8
	retq
.Lfunc_end7:
	.size	_RNvYFEuINtNtNtCs8vqiuRab9r0_4core3ops8function6FnOnceuE9call_onceCsdFYGeFGU6w7_10helloworld, .Lfunc_end7-_RNvYFEuINtNtNtCs8vqiuRab9r0_4core3ops8function6FnOnceuE9call_onceCsdFYGeFGU6w7_10helloworld
	.cfi_endproc

	.section	.text._RNvYNCINvNtCs85GBm0N6DSS_3std2rt10lang_startuE0INtNtNtCs8vqiuRab9r0_4core3ops8function6FnOnceuE9call_onceCsdFYGeFGU6w7_10helloworld,"ax",@progbits
	.p2align	4
	.type	_RNvYNCINvNtCs85GBm0N6DSS_3std2rt10lang_startuE0INtNtNtCs8vqiuRab9r0_4core3ops8function6FnOnceuE9call_onceCsdFYGeFGU6w7_10helloworld,@function
_RNvYNCINvNtCs85GBm0N6DSS_3std2rt10lang_startuE0INtNtNtCs8vqiuRab9r0_4core3ops8function6FnOnceuE9call_onceCsdFYGeFGU6w7_10helloworld:
.Lfunc_begin0:
	.cfi_startproc
	.cfi_personality 155, DW.ref.rust_eh_personality
	.cfi_lsda 27, .Lexception0
	subq	$40, %rsp
	.cfi_def_cfa_offset 48
	movq	%rdi, 8(%rsp)
.Ltmp0:
	leaq	8(%rsp), %rdi
	callq	_RNCINvNtCs85GBm0N6DSS_3std2rt10lang_startuE0CsdFYGeFGU6w7_10helloworld
.Ltmp1:
	movl	%eax, 4(%rsp)
	jmp	.LBB8_3
.LBB8_1:
	movq	24(%rsp), %rdi
	callq	_Unwind_Resume@PLT
.LBB8_2:
.Ltmp2:
	movq	%rax, %rcx
	movl	%edx, %eax
	movq	%rcx, 24(%rsp)
	movl	%eax, 32(%rsp)
	jmp	.LBB8_1
.LBB8_3:
	movl	4(%rsp), %eax
	addq	$40, %rsp
	.cfi_def_cfa_offset 8
	retq
.Lfunc_end8:
	.size	_RNvYNCINvNtCs85GBm0N6DSS_3std2rt10lang_startuE0INtNtNtCs8vqiuRab9r0_4core3ops8function6FnOnceuE9call_onceCsdFYGeFGU6w7_10helloworld, .Lfunc_end8-_RNvYNCINvNtCs85GBm0N6DSS_3std2rt10lang_startuE0INtNtNtCs8vqiuRab9r0_4core3ops8function6FnOnceuE9call_onceCsdFYGeFGU6w7_10helloworld
	.cfi_endproc
	.section	.gcc_except_table._RNvYNCINvNtCs85GBm0N6DSS_3std2rt10lang_startuE0INtNtNtCs8vqiuRab9r0_4core3ops8function6FnOnceuE9call_onceCsdFYGeFGU6w7_10helloworld,"a",@progbits
	.p2align	2, 0x0
GCC_except_table8:
.Lexception0:
	.byte	255
	.byte	255
	.byte	1
	.uleb128 .Lcst_end0-.Lcst_begin0
.Lcst_begin0:
	.uleb128 .Ltmp0-.Lfunc_begin0
	.uleb128 .Ltmp1-.Ltmp0
	.uleb128 .Ltmp2-.Lfunc_begin0
	.byte	0
	.uleb128 .Ltmp1-.Lfunc_begin0
	.uleb128 .Lfunc_end8-.Ltmp1
	.byte	0
	.byte	0
.Lcst_end0:
	.p2align	2, 0x0

	.section	.text.main,"ax",@progbits
	.globl	main
	.p2align	4
	.type	main,@function
main:
	.cfi_startproc
	pushq	%rax
	.cfi_def_cfa_offset 16
	movq	%rsi, %rdx
	movslq	%edi, %rsi
	leaq	_RNvCsdFYGeFGU6w7_10helloworld4main(%rip), %rdi
	xorl	%ecx, %ecx
	callq	_RINvNtCs85GBm0N6DSS_3std2rt10lang_startuECsdFYGeFGU6w7_10helloworld
	popq	%rcx
	.cfi_def_cfa_offset 8
	retq
.Lfunc_end9:
	.size	main, .Lfunc_end9-main
	.cfi_endproc

	.type	.Lanon.35a3014d312fa67fbe735fb7e873c570.0,@object
	.section	.data.rel.ro..Lanon.35a3014d312fa67fbe735fb7e873c570.0,"aw",@progbits
	.p2align	3, 0x0
.Lanon.35a3014d312fa67fbe735fb7e873c570.0:
	.asciz	"\000\000\000\000\000\000\000\000\b\000\000\000\000\000\000\000\b\000\000\000\000\000\000"
	.quad	_RNSNvYNCINvNtCs85GBm0N6DSS_3std2rt10lang_startuE0INtNtNtCs8vqiuRab9r0_4core3ops8function6FnOnceuE9call_once6vtableCsdFYGeFGU6w7_10helloworld
	.quad	_RNCINvNtCs85GBm0N6DSS_3std2rt10lang_startuE0CsdFYGeFGU6w7_10helloworld
	.quad	_RNCINvNtCs85GBm0N6DSS_3std2rt10lang_startuE0CsdFYGeFGU6w7_10helloworld
	.size	.Lanon.35a3014d312fa67fbe735fb7e873c570.0, 48

	.type	.Lanon.35a3014d312fa67fbe735fb7e873c570.1,@object
	.section	.rodata..Lanon.35a3014d312fa67fbe735fb7e873c570.1,"a",@progbits
.Lanon.35a3014d312fa67fbe735fb7e873c570.1:
	.ascii	"Hello, world!\n"
	.size	.Lanon.35a3014d312fa67fbe735fb7e873c570.1, 14

	.hidden	DW.ref.rust_eh_personality
	.weak	DW.ref.rust_eh_personality
	.section	.data.DW.ref.rust_eh_personality,"awG",@progbits,DW.ref.rust_eh_personality,comdat
	.p2align	3, 0x0
	.type	DW.ref.rust_eh_personality,@object
	.size	DW.ref.rust_eh_personality, 8
DW.ref.rust_eh_personality:
	.quad	rust_eh_personality
	.ident	"rustc version 1.94.0-nightly (31cd367b9 2026-01-08)"
	.section	".note.GNU-stack","",@progbits
